(i__main__
Game
p0
(dp1
S'kinds'
p2
(dp3
S'strawberryes'
p4
(i__main__
Kind
p5
(dp6
S'qualities'
p7
(dp8
S'flavor'
p9
S'"yummy"'
p10
ssS'parent'
p11
(i__main__
Kind
p12
(dp13
g7
(dp14
g9
g10
ssg11
(i__main__
Kind
p15
(dp16
g7
(dp17
sg11
NsS'lastReferenced'
p18
Nsbsg18
Nsbsg18
NsbsS'person'
p19
(i__main__
Kind
p20
(dp21
g7
(dp22
sg11
g15
sg18
(i__main__
Thing
p23
(dp24
S'kind'
p25
g20
sS'name'
p26
S'kuriteru'
p27
sS'lastChanged'
p28
(dp29
S'color'
p30
I0
ssS'location'
p31
Nsg7
(dp32
g30
S'"purple"'
p33
ssS'contents'
p34
(lp35
sbsbsS'food'
p36
g12
sS'strawberrys'
p37
g5
sS'asparaguses'
p38
(i__main__
Kind
p39
(dp40
g7
(dp41
g9
S'"yucky"'
p42
ssg11
g12
sg18
(i__main__
Thing
p43
(dp44
g25
g39
sg26
Nsg28
(dp45
g9
I0
ssg31
Nsg7
(dp46
g9
g42
ssg34
(lp47
sbsbsS'thing'
p48
g15
sS'foods'
p49
g12
sS'foodes'
p50
g12
sS'asparagus'
p51
g39
sS'asparaguss'
p52
g39
sS'strawberry'
p53
g5
ssS'afterRules'
p54
(dp55
sS'author'
p56
NsS'things'
p57
(dp58
g27
g23
ssS'title'
p59
NsS'start'
p60
NsS'whenPlayBegins'
p61
(lp62
sS'insteadRules'
p63
(dp64
sS'understand'
p65
(dp66
S'"trunk"'
p67
S'large tree trunk'
p68
sS'taking'
p69
S'take'
p70
sS'eating'
p71
S'eat'
p72
sS'"tree"'
p73
g68
ssS'rooms'
p74
(dp75
S'vegetable patch'
p76
(i__main__
Room
p77
(dp78
S'adjacent'
p79
(dp80
S'north'
p81
(i__main__
Room
p82
(dp83
g79
(dp84
S"kuriteru's yard"
p85
(i__main__
Room
p86
(dp87
g79
(dp88
S'east'
p89
g82
ssg26
S'berry patch'
p90
sg34
(lp91
(i__main__
Thing
p92
(dp93
g25
(i__main__
Kind
p94
(dp95
g7
(dp96
sg11
g15
sg18
(i__main__
Thing
p97
(dp98
g25
g94
sg26
Nsg28
(dp99
sg31
Nsg7
(dp100
sg34
(lp101
sbsbsg26
Nsg28
(dp102
sg31
Nsg7
(dp103
sg34
(lp104
sba(i__main__
Thing
p105
(dp106
g25
g94
sg26
Nsg28
(dp107
sg31
Nsg7
(dp108
sg34
(lp109
sba(i__main__
Thing
p110
(dp111
g25
g94
sg26
Nsg28
(dp112
sg31
Nsg7
(dp113
sg34
(lp114
sba(i__main__
Thing
p115
(dp116
g25
g94
sg26
Nsg28
(dp117
sg31
Nsg7
(dp118
sg34
(lp119
sba(i__main__
Thing
p120
(dp121
g25
g94
sg26
Nsg28
(dp122
sg31
Nsg7
(dp123
sg34
(lp124
sba(i__main__
Thing
p125
(dp126
g25
g94
sg26
Nsg28
(dp127
sg31
Nsg7
(dp128
sg34
(lp129
sba(i__main__
Thing
p130
(dp131
g25
g94
sg26
Nsg28
(dp132
sg31
Nsg7
(dp133
sg34
(lp134
sba(i__main__
Thing
p135
(dp136
g25
g94
sg26
Nsg28
(dp137
sg31
Nsg7
(dp138
sg34
(lp139
sba(i__main__
Thing
p140
(dp141
g25
g94
sg26
Nsg28
(dp142
sg31
Nsg7
(dp143
sg34
(lp144
sba(i__main__
Thing
p145
(dp146
g25
g94
sg26
Nsg28
(dp147
sg31
Nsg7
(dp148
sg34
(lp149
sba(i__main__
Thing
p150
(dp151
g25
g94
sg26
Nsg28
(dp152
sg31
Nsg7
(dp153
sg34
(lp154
sba(i__main__
Thing
p155
(dp156
g25
g94
sg26
Nsg28
(dp157
sg31
Nsg7
(dp158
sg34
(lp159
sba(i__main__
Thing
p160
(dp161
g25
g94
sg26
Nsg28
(dp162
sg31
Nsg7
(dp163
sg34
(lp164
sba(i__main__
Thing
p165
(dp166
g25
g94
sg26
Nsg28
(dp167
sg31
Nsg7
(dp168
sg34
(lp169
sba(i__main__
Thing
p170
(dp171
g25
g94
sg26
Nsg28
(dp172
sg31
Nsg7
(dp173
sg34
(lp174
sba(i__main__
Thing
p175
(dp176
g25
g94
sg26
Nsg28
(dp177
sg31
Nsg7
(dp178
sg34
(lp179
sba(i__main__
Thing
p180
(dp181
g25
g94
sg26
Nsg28
(dp182
sg31
Nsg7
(dp183
sg34
(lp184
sba(i__main__
Thing
p185
(dp186
g25
g94
sg26
Nsg28
(dp187
sg31
Nsg7
(dp188
sg34
(lp189
sba(i__main__
Thing
p190
(dp191
g25
g94
sg26
Nsg28
(dp192
sg31
Nsg7
(dp193
sg34
(lp194
sba(i__main__
Thing
p195
(dp196
g25
g94
sg26
Nsg28
(dp197
sg31
Nsg7
(dp198
sg34
(lp199
sba(i__main__
Thing
p200
(dp201
g25
g94
sg26
Nsg28
(dp202
sg31
Nsg7
(dp203
sg34
(lp204
sba(i__main__
Thing
p205
(dp206
g25
g94
sg26
Nsg28
(dp207
sg31
Nsg7
(dp208
sg34
(lp209
sba(i__main__
Thing
p210
(dp211
g25
g94
sg26
Nsg28
(dp212
sg31
Nsg7
(dp213
sg34
(lp214
sba(i__main__
Thing
p215
(dp216
g25
g94
sg26
Nsg28
(dp217
sg31
Nsg7
(dp218
sg34
(lp219
sbag97
asS'description'
p220
S'"The Berry Patch has several strawberry plants."'
p221
sbssg26
S"kuriteru's yard"
p222
sg34
(lp223
(i__main__
Thing
p224
(dp225
g25
(i__main__
Kind
p226
(dp227
g7
(dp228
sg11
g15
sg18
g224
sbsg26
Nsg28
(dp229
sg31
g82
sg7
(dp230
sg34
(lp231
sbasg220
S'"This is where Kuriteru lives. A large tree is in the middle of the square. A swing made from a tire and rope hangs from a branch."'
p232
sbssg26
g76
sg34
(lp233
(i__main__
Thing
p234
(dp235
g25
g39
sg26
Nsg28
(dp236
g9
I0
ssg31
Nsg7
(dp237
g9
g42
ssg34
(lp238
sba(i__main__
Thing
p239
(dp240
g25
g39
sg26
Nsg28
(dp241
g9
I0
ssg31
Nsg7
(dp242
g9
g42
ssg34
(lp243
sba(i__main__
Thing
p244
(dp245
g25
g39
sg26
Nsg28
(dp246
g9
I0
ssg31
Nsg7
(dp247
g9
g42
ssg34
(lp248
sba(i__main__
Thing
p249
(dp250
g25
g39
sg26
Nsg28
(dp251
g9
I0
ssg31
Nsg7
(dp252
g9
g42
ssg34
(lp253
sba(i__main__
Thing
p254
(dp255
g25
g39
sg26
Nsg28
(dp256
g9
I0
ssg31
Nsg7
(dp257
g9
g42
ssg34
(lp258
sba(i__main__
Thing
p259
(dp260
g25
g39
sg26
Nsg28
(dp261
g9
I0
ssg31
Nsg7
(dp262
g9
g42
ssg34
(lp263
sba(i__main__
Thing
p264
(dp265
g25
g39
sg26
Nsg28
(dp266
g9
I0
ssg31
Nsg7
(dp267
g9
g42
ssg34
(lp268
sba(i__main__
Thing
p269
(dp270
g25
g39
sg26
Nsg28
(dp271
g9
I0
ssg31
Nsg7
(dp272
g9
g42
ssg34
(lp273
sba(i__main__
Thing
p274
(dp275
g25
g39
sg26
Nsg28
(dp276
g9
I0
ssg31
Nsg7
(dp277
g9
g42
ssg34
(lp278
sba(i__main__
Thing
p279
(dp280
g25
g39
sg26
Nsg28
(dp281
g9
I0
ssg31
Nsg7
(dp282
g9
g42
ssg34
(lp283
sba(i__main__
Thing
p284
(dp285
g25
g39
sg26
Nsg28
(dp286
g9
I0
ssg31
Nsg7
(dp287
g9
g42
ssg34
(lp288
sbag43
asg220
S'"The Vegetable Patch has several asparagus plants."'
p289
sbsg90
g86
sg222
g82
sS'treehouse'
p290
(i__main__
Room
p291
(dp292
g79
(dp293
S'down'
p294
g82
ssg26
g290
sg34
(lp295
sg220
S'"Kuriteru lives in this treehouse. It is woven from reeds and flexible tree branches."'
p296
sbssS'lastRoom'
p297
g86
sS'turn'
p298
I0
sS'everyTurn'
p299
(lp300
sb.